; Function Attrs: inlinehint mustprogress norecurse uwtable
define internal fastcc void @_ZN2cv6detail5YieldINS_6GArrayIN6custom12_GLOBAL__N_14FaceEEEE5yieldERNS_5GCallEi(ptr dead_on_unwind noalias nonnull writable align 8 initializes((0, 32)) %0, ptr noundef nonnull align 8 dereferenceable(16) %1) unnamed_addr #9 align 2 personality ptr @__gxx_personality_v0 {
  %3 = alloca %"class.cv::detail::GArrayU", align 8
  tail call void @llvm.experimental.noalias.scope.decl(metadata !1010)
  call void @llvm.lifetime.start.p0(i64 32, ptr nonnull %3) #35, !noalias !1010
  call void @_ZN2cv5GCall10yieldArrayEi(ptr dead_on_unwind nonnull writable sret(%"class.cv::detail::GArrayU") align 8 %3, ptr noundef nonnull align 8 dereferenceable(16) %1, i32 noundef 0), !noalias !1010
  %4 = load ptr, ptr %3, align 8, !tbaa !74, !noalias !1010
  store ptr %4, ptr %0, align 8, !tbaa !74, !alias.scope !1010
  %5 = getelementptr inbounds nuw i8, ptr %0, i64 8
  %6 = getelementptr inbounds nuw i8, ptr %3, i64 8
  %7 = load ptr, ptr %6, align 8, !tbaa !65, !noalias !1010
  store ptr %7, ptr %5, align 8, !tbaa !65, !alias.scope !1010
  %.not.i.i.i.i.i.i = icmp eq ptr %7, null
  br i1 %.not.i.i.i.i.i.i, label %_ZNSt10shared_ptrIN2cv7GOriginEEC2ERKS2_.exit.i.i.i, label %8

8:                                                ; preds = %2
  %9 = getelementptr inbounds nuw i8, ptr %7, i64 8
  %10 = load i8, ptr @__libc_single_threaded, align 1, !tbaa !13, !noalias !1010
  %.not.i.i.i.i.i.i.i = icmp eq i8 %10, 0
  br i1 %.not.i.i.i.i.i.i.i, label %14, label %11

11:                                               ; preds = %8
  %12 = load i32, ptr %9, align 4, !tbaa !42, !noalias !1010
  %13 = add nsw i32 %12, 1
  store i32 %13, ptr %9, align 4, !tbaa !42, !noalias !1010
  br label %_ZNSt10shared_ptrIN2cv7GOriginEEC2ERKS2_.exit.i.i.i

14:                                               ; preds = %8
  %15 = atomicrmw volatile add ptr %9, i32 1 acq_rel, align 4, !noalias !1010
  br label %_ZNSt10shared_ptrIN2cv7GOriginEEC2ERKS2_.exit.i.i.i

_ZNSt10shared_ptrIN2cv7GOriginEEC2ERKS2_.exit.i.i.i: ; preds = %14, %11, %2
  %16 = getelementptr inbounds nuw i8, ptr %0, i64 16
  %17 = getelementptr inbounds nuw i8, ptr %3, i64 16
  %18 = load ptr, ptr %17, align 8, !tbaa !77, !noalias !1010
  store ptr %18, ptr %16, align 8, !tbaa !77, !alias.scope !1010
  %19 = getelementptr inbounds nuw i8, ptr %0, i64 24
  %20 = getelementptr inbounds nuw i8, ptr %3, i64 24
  %21 = load ptr, ptr %20, align 8, !tbaa !65, !noalias !1010
  store ptr %21, ptr %19, align 8, !tbaa !65, !alias.scope !1010
  %.not.i.i.i3.i.i.i = icmp eq ptr %21, null
  br i1 %.not.i.i.i3.i.i.i, label %_ZN2cv6detail7GArrayUC2ERKS1_.exit.i.i, label %22

22:                                               ; preds = %_ZNSt10shared_ptrIN2cv7GOriginEEC2ERKS2_.exit.i.i.i
  %23 = getelementptr inbounds nuw i8, ptr %21, i64 8
  %24 = load i8, ptr @__libc_single_threaded, align 1, !tbaa !13, !noalias !1010
  %.not.i.i.i.i4.i.i.i = icmp eq i8 %24, 0
  br i1 %.not.i.i.i.i4.i.i.i, label %28, label %25

25:                                               ; preds = %22
  %26 = load i32, ptr %23, align 4, !tbaa !42, !noalias !1010
  %27 = add nsw i32 %26, 1
  store i32 %27, ptr %23, align 4, !tbaa !42, !noalias !1010
  br label %_ZN2cv6detail7GArrayUC2ERKS1_.exit.i.i

28:                                               ; preds = %22
  %29 = atomicrmw volatile add ptr %23, i32 1 acq_rel, align 4, !noalias !1010
  br label %_ZN2cv6detail7GArrayUC2ERKS1_.exit.i.i

_ZN2cv6detail7GArrayUC2ERKS1_.exit.i.i:           ; preds = %28, %25, %_ZNSt10shared_ptrIN2cv7GOriginEEC2ERKS2_.exit.i.i.i
  invoke fastcc void @_ZN2cv6GArrayIN6custom12_GLOBAL__N_14FaceEE10putDetailsEv(ptr noundef nonnull align 8 dereferenceable(32) %0)
          to label %_ZN2cv6GArrayIN6custom12_GLOBAL__N_14FaceEEC2EONS_6detail7GArrayUE.exit.i unwind label %.body.i

.body.i:                                          ; preds = %_ZN2cv6detail7GArrayUC2ERKS1_.exit.i.i
  %30 = landingpad { ptr, i32 }
          cleanup
  call void @_ZN2cv6detail7GArrayUD2Ev(ptr noundef nonnull align 8 dereferenceable(32) %0) #35
  call void @_ZN2cv6detail7GArrayUD2Ev(ptr noundef nonnull align 8 dereferenceable(32) %3) #35
  call void @llvm.lifetime.end.p0(i64 32, ptr nonnull %3) #35, !noalias !1010
  resume { ptr, i32 } %30

_ZN2cv6GArrayIN6custom12_GLOBAL__N_14FaceEEC2EONS_6detail7GArrayUE.exit.i: ; preds = %_ZN2cv6detail7GArrayUC2ERKS1_.exit.i.i
  %31 = load ptr, ptr %20, align 8, !tbaa !65, !noalias !1010
  %.not.i.i.i.i = icmp eq ptr %31, null
  br i1 %.not.i.i.i.i, label %_ZNSt12__shared_ptrIN2cv6detail12TypeHintBaseELN9__gnu_cxx12_Lock_policyE2EED2Ev.exit.i.i, label %32

32:                                               ; preds = %_ZN2cv6GArrayIN6custom12_GLOBAL__N_14FaceEEC2EONS_6detail7GArrayUE.exit.i
  %33 = getelementptr inbounds nuw i8, ptr %31, i64 8
  %34 = load atomic i64, ptr %33 acquire, align 8
  %35 = icmp eq i64 %34, 4294967297
  %36 = trunc i64 %34 to i32
  br i1 %35, label %37, label %45

37:                                               ; preds = %32
  store i32 0, ptr %33, align 8, !tbaa !68
  %38 = getelementptr inbounds nuw i8, ptr %31, i64 12
  store i32 0, ptr %38, align 4, !tbaa !70
  %39 = load ptr, ptr %31, align 8, !tbaa !71
  %40 = getelementptr inbounds nuw i8, ptr %39, i64 16
  %41 = load ptr, ptr %40, align 8
  call void %41(ptr noundef nonnull align 8 dereferenceable(16) %31) #35
  %42 = load ptr, ptr %31, align 8, !tbaa !71
  %43 = getelementptr inbounds nuw i8, ptr %42, i64 24
  %44 = load ptr, ptr %43, align 8
  call void %44(ptr noundef nonnull align 8 dereferenceable(16) %31) #35
  br label %_ZNSt12__shared_ptrIN2cv6detail12TypeHintBaseELN9__gnu_cxx12_Lock_policyE2EED2Ev.exit.i.i

45:                                               ; preds = %32
  %46 = load i8, ptr @__libc_single_threaded, align 1, !tbaa !13, !noalias !1010
  %.not.i.i.i.i.i = icmp eq i8 %46, 0
  br i1 %.not.i.i.i.i.i, label %49, label %47

47:                                               ; preds = %45
  %48 = add nsw i32 %36, -1
  store i32 %48, ptr %33, align 4, !tbaa !42
  br label %_ZN9__gnu_cxx27__exchange_and_add_dispatchEPii.exit.i.i.i.i.i

49:                                               ; preds = %45
  %50 = atomicrmw volatile add ptr %33, i32 -1 acq_rel, align 4
  br label %_ZN9__gnu_cxx27__exchange_and_add_dispatchEPii.exit.i.i.i.i.i

_ZN9__gnu_cxx27__exchange_and_add_dispatchEPii.exit.i.i.i.i.i: ; preds = %49, %47
  %.0.i.i.i.i.i.i = phi i32 [ %36, %47 ], [ %50, %49 ]
  %51 = icmp eq i32 %.0.i.i.i.i.i.i, 1
  br i1 %51, label %52, label %_ZNSt12__shared_ptrIN2cv6detail12TypeHintBaseELN9__gnu_cxx12_Lock_policyE2EED2Ev.exit.i.i, !prof !73

52:                                               ; preds = %_ZN9__gnu_cxx27__exchange_and_add_dispatchEPii.exit.i.i.i.i.i
  call void @_ZNSt16_Sp_counted_baseILN9__gnu_cxx12_Lock_policyE2EE24_M_release_last_use_coldEv(ptr noundef nonnull align 8 dereferenceable(16) %31) #35
  br label %_ZNSt12__shared_ptrIN2cv6detail12TypeHintBaseELN9__gnu_cxx12_Lock_policyE2EED2Ev.exit.i.i

_ZNSt12__shared_ptrIN2cv6detail12TypeHintBaseELN9__gnu_cxx12_Lock_policyE2EED2Ev.exit.i.i: ; preds = %52, %_ZN9__gnu_cxx27__exchange_and_add_dispatchEPii.exit.i.i.i.i.i, %37, %_ZN2cv6GArrayIN6custom12_GLOBAL__N_14FaceEEC2EONS_6detail7GArrayUE.exit.i
  %53 = load ptr, ptr %6, align 8, !tbaa !65, !noalias !1010
  %.not.i.i1.i.i = icmp eq ptr %53, null
  br i1 %.not.i.i1.i.i, label %_ZN2cv5GCall10yieldArrayIN6custom12_GLOBAL__N_14FaceEEENS_6GArrayIT_EEi.exit, label %54

54:                                               ; preds = %_ZNSt12__shared_ptrIN2cv6detail12TypeHintBaseELN9__gnu_cxx12_Lock_policyE2EED2Ev.exit.i.i
  %55 = getelementptr inbounds nuw i8, ptr %53, i64 8
  %56 = load atomic i64, ptr %55 acquire, align 8
  %57 = icmp eq i64 %56, 4294967297
  %58 = trunc i64 %56 to i32
  br i1 %57, label %59, label %67

59:                                               ; preds = %54
  store i32 0, ptr %55, align 8, !tbaa !68
  %60 = getelementptr inbounds nuw i8, ptr %53, i64 12
  store i32 0, ptr %60, align 4, !tbaa !70
  %61 = load ptr, ptr %53, align 8, !tbaa !71
  %62 = getelementptr inbounds nuw i8, ptr %61, i64 16
  %63 = load ptr, ptr %62, align 8
  call void %63(ptr noundef nonnull align 8 dereferenceable(16) %53) #35
  %64 = load ptr, ptr %53, align 8, !tbaa !71
  %65 = getelementptr inbounds nuw i8, ptr %64, i64 24
  %66 = load ptr, ptr %65, align 8
  call void %66(ptr noundef nonnull align 8 dereferenceable(16) %53) #35
  br label %_ZN2cv5GCall10yieldArrayIN6custom12_GLOBAL__N_14FaceEEENS_6GArrayIT_EEi.exit

67:                                               ; preds = %54
  %68 = load i8, ptr @__libc_single_threaded, align 1, !tbaa !13, !noalias !1010
  %.not.i.i.i2.i.i = icmp eq i8 %68, 0
  br i1 %.not.i.i.i2.i.i, label %71, label %69

69:                                               ; preds = %67
  %70 = add nsw i32 %58, -1
  store i32 %70, ptr %55, align 4, !tbaa !42
  br label %_ZN9__gnu_cxx27__exchange_and_add_dispatchEPii.exit.i.i.i3.i.i

71:                                               ; preds = %67
  %72 = atomicrmw volatile add ptr %55, i32 -1 acq_rel, align 4
  br label %_ZN9__gnu_cxx27__exchange_and_add_dispatchEPii.exit.i.i.i3.i.i

_ZN9__gnu_cxx27__exchange_and_add_dispatchEPii.exit.i.i.i3.i.i: ; preds = %71, %69
  %.0.i.i.i.i4.i.i = phi i32 [ %58, %69 ], [ %72, %71 ]
  %73 = icmp eq i32 %.0.i.i.i.i4.i.i, 1
  br i1 %73, label %74, label %_ZN2cv5GCall10yieldArrayIN6custom12_GLOBAL__N_14FaceEEENS_6GArrayIT_EEi.exit, !prof !73

74:                                               ; preds = %_ZN9__gnu_cxx27__exchange_and_add_dispatchEPii.exit.i.i.i3.i.i
  call void @_ZNSt16_Sp_counted_baseILN9__gnu_cxx12_Lock_policyE2EE24_M_release_last_use_coldEv(ptr noundef nonnull align 8 dereferenceable(16) %53) #35
  br label %_ZN2cv5GCall10yieldArrayIN6custom12_GLOBAL__N_14FaceEEENS_6GArrayIT_EEi.exit

_ZN2cv5GCall10yieldArrayIN6custom12_GLOBAL__N_14FaceEEENS_6GArrayIT_EEi.exit: ; preds = %_ZNSt12__shared_ptrIN2cv6detail12TypeHintBaseELN9__gnu_cxx12_Lock_policyE2EED2Ev.exit.i.i, %59, %_ZN9__gnu_cxx27__exchange_and_add_dispatchEPii.exit.i.i.i3.i.i, %74
  call void @llvm.lifetime.end.p0(i64 32, ptr nonnull %3) #35, !noalias !1010
  ret void
}